(dp1
I41
(dp2
S'becameSuitTime'
p3
F1439782874.562
sS'savedBy'
p4
NsS'track'
p5
S'c'
sS'numFloors'
p6
I4
sS'difficulty'
p7
I5
sS'state'
p8
S'suit'
p9
sS'block'
p10
I41
ssI12
(dp11
g3
F1450940039.01
sg4
Nsg5
S'c'
sg6
I2
sg7
I4
sg8
g9
sg10
I12
ssI45
(dp12
g3
F1439782844.362
sg4
Nsg5
S'l'
sg6
I4
sg7
I4
sg8
g9
sg10
I45
ssI54
(dp13
g3
F1450939991.95
sg4
Nsg5
S'c'
sg6
I3
sg7
I5
sg8
g9
sg10
I54
ssI71
(dp14
g3
F1450940001.737
sg4
Nsg5
S'c'
sg6
I1
sg7
I2
sg8
g9
sg10
I71
ss.