(dp1
I21
(dp2
S'becameSuitTime'
p3
F1403462532.563
sS'savedBy'
p4
NsS'track'
p5
S'm'
sS'numFloors'
p6
I1
sS'difficulty'
p7
I0
sS'state'
p8
S'suit'
p9
sS'block'
p10
I21
ssI30
(dp11
g3
F1403461181.382
sg4
Nsg5
S'm'
sg6
I2
sg7
I2
sg8
g9
sg10
I30
ssI29
(dp12
g3
F1403461189.4000001
sg4
Nsg5
S's'
sg6
I1
sg7
I0
sg8
g9
sg10
I29
ss.