(dp1
I40
(dp2
S'becameSuitTime'
p3
F1403461414.836
sS'savedBy'
p4
NsS'track'
p5
S'c'
sS'numFloors'
p6
I1
sS'difficulty'
p7
I1
sS'state'
p8
S'suit'
p9
sS'block'
p10
I40
ssI25
(dp11
g3
F1403461540.7130001
sg4
Nsg5
S'm'
sg6
I1
sg7
I0
sg8
g9
sg10
I25
ssI30
(dp12
g3
F1403462094.8410001
sg4
Nsg5
S'l'
sg6
I1
sg7
I0
sg8
g9
sg10
I30
ss.