(dp1
I24
(dp2
S'becameSuitTime'
p3
F1403461067.0650001
sS'savedBy'
p4
NsS'track'
p5
S'm'
sS'numFloors'
p6
I2
sS'difficulty'
p7
I3
sS'state'
p8
S'suit'
p9
sS'block'
p10
I24
ssI17
(dp11
g3
F1403462300.1530001
sg4
Nsg5
S'm'
sg6
I2
sg7
I4
sg8
g9
sg10
I17
ssI26
(dp12
g3
F1403461083.585
sg4
Nsg5
S's'
sg6
I4
sg7
I5
sg8
g9
sg10
I26
ssI13
(dp13
g3
F1403461067.6110001
sg4
Nsg5
S'm'
sg6
I3
sg7
I2
sg8
g9
sg10
I13
ssI25
(dp14
g3
F1403462294.381
sg4
Nsg5
S'm'
sg6
I3
sg7
I5
sg8
g9
sg10
I25
ss.