(dp1
I33
(dp2
S'becameSuitTime'
p3
F1403462801.507
sS'savedBy'
p4
NsS'track'
p5
S'l'
sS'numFloors'
p6
I4
sS'difficulty'
p7
I4
sS'state'
p8
S'suit'
p9
sS'block'
p10
I33
ssI10
(dp11
g3
F1403461330.0190001
sg4
Nsg5
S'l'
sg6
I3
sg7
I2
sg8
g9
sg10
I10
ssI18
(dp12
g3
F1403459833.727
sg4
Nsg5
S'c'
sg6
I3
sg7
I5
sg8
g9
sg10
I18
ssI13
(dp13
g3
F1403461316.4779999
sg4
Nsg5
S'l'
sg6
I3
sg7
I4
sg8
g9
sg10
I13
ssI30
(dp14
g3
F1403461307.352
sg4
Nsg5
S'l'
sg6
I3
sg7
I4
sg8
g9
sg10
I30
ss.