(dp1
I27
(dp2
S'becameSuitTime'
p3
F1403461076.9400001
sS'savedBy'
p4
NsS'track'
p5
S'm'
sS'numFloors'
p6
I3
sS'difficulty'
p7
I2
sS'state'
p8
S'suit'
p9
sS'block'
p10
I27
ssI25
(dp11
g3
F1403459820.155
sg4
Nsg5
S'm'
sg6
I2
sg7
I3
sg8
g9
sg10
I25
ssI19
(dp12
g3
F1403462302.4000001
sg4
Nsg5
S'm'
sg6
I3
sg7
I4
sg8
g9
sg10
I19
ssI12
(dp13
g3
F1403461053.9449999
sg4
Nsg5
S'm'
sg6
I4
sg7
I5
sg8
g9
sg10
I12
ssI21
(dp14
g3
F1403461053.072
sg4
Nsg5
S'm'
sg6
I4
sg7
I5
sg8
g9
sg10
I21
ss.