(dp1
I24
(dp2
S'becameSuitTime'
p3
F1403462177.6930001
sS'savedBy'
p4
NsS'track'
p5
S'c'
sS'numFloors'
p6
I3
sS'difficulty'
p7
I2
sS'state'
p8
S'suit'
p9
sS'block'
p10
I24
ssI28
(dp11
g3
F1403462746.9849999
sg4
Nsg5
S'c'
sg6
I3
sg7
I3
sg8
g9
sg10
I28
ssI26
(dp12
g3
F1409624739.842
sg4
Nsg5
S'c'
sg6
I1
sg7
I2
sg8
g9
sg10
I26
ssI20
(dp13
g3
F1403460980.7190001
sg4
Nsg5
S'c'
sg6
I1
sg7
I2
sg8
g9
sg10
I20
ssI13
(dp14
g3
F1403460988.4560001
sg4
Nsg5
S'c'
sg6
I2
sg7
I2
sg8
g9
sg10
I13
ss.