(dp1
I24
(dp2
S'becameSuitTime'
p3
F1403462200.3599999
sS'savedBy'
p4
NsS'track'
p5
S'c'
sS'numFloors'
p6
I2
sS'difficulty'
p7
I1
sS'state'
p8
S'suit'
p9
sS'block'
p10
I24
ssI17
(dp11
g3
F1403461004.072
sg4
Nsg5
S'c'
sg6
I3
sg7
I2
sg8
g9
sg10
I17
ssI27
(dp12
g3
F1403461023.2909999
sg4
Nsg5
S'c'
sg6
I2
sg7
I3
sg8
g9
sg10
I27
ssI20
(dp13
g3
F1403462833.4089999
sg4
Nsg5
S'c'
sg6
I2
sg7
I3
sg8
g9
sg10
I20
ssI14
(dp14
g3
F1403461025.631
sg4
Nsg5
S'c'
sg6
I1
sg7
I1
sg8
g9
sg10
I14
ss.