(dp1
I48
(dp2
S'becameSuitTime'
p3
F1413693231.1370001
sS'savedBy'
p4
NsS'track'
p5
S's'
sS'numFloors'
p6
I5
sS'difficulty'
p7
I8
sS'state'
p8
S'suit'
p9
sS'block'
p10
I48
ssI17
(dp11
g3
F1405654130.997
sg4
Nsg5
S'l'
sg6
I2
sg7
I1
sg8
g9
sg10
I17
ssI39
(dp12
g3
F1403462188.473
sg4
Nsg5
S'l'
sg6
I2
sg7
I2
sg8
g9
sg10
I39
ssI43
(dp13
g3
F1407987256.3740001
sg4
Nsg5
S'c'
sg6
I1
sg7
I2
sg8
g9
sg10
I43
ssI31
(dp14
g3
F1407987277.8859999
sg4
Nsg5
S's'
sg6
I2
sg7
I3
sg8
g9
sg10
I31
ss.