(dp1
I24
(dp2
S'becameSuitTime'
p3
F1403461043.5090001
sS'savedBy'
p4
NsS'track'
p5
S'm'
sS'numFloors'
p6
I3
sS'difficulty'
p7
I3
sS'state'
p8
S'suit'
p9
sS'block'
p10
I24
ssI17
(dp11
g3
F1403461029.9990001
sg4
Nsg5
S'm'
sg6
I1
sg7
I2
sg8
g9
sg10
I17
ssI18
(dp12
g3
F1403462269.109
sg4
Nsg5
S'm'
sg6
I4
sg7
I4
sg8
g9
sg10
I18
ssI21
(dp13
g3
F1403461027.4089999
sg4
Nsg5
S'm'
sg6
I3
sg7
I5
sg8
g9
sg10
I21
ssI14
(dp14
g3
F1403459792.839
sg4
Nsg5
S'm'
sg6
I3
sg7
I3
sg8
g9
sg10
I14
ss.