(dp1
I34
(dp2
S'becameSuitTime'
p3
F1403465860.158
sS'savedBy'
p4
NsS'track'
p5
S'm'
sS'numFloors'
p6
I2
sS'difficulty'
p7
I1
sS'state'
p8
S'suit'
p9
sS'block'
p10
I34
ssI39
(dp11
g3
F1403464516.122
sg4
Nsg5
S'm'
sg6
I1
sg7
I0
sg8
g9
sg10
I39
ssI23
(dp12
g3
F1403465012.0150001
sg4
Nsg5
S's'
sg6
I1
sg7
I2
sg8
g9
sg10
I23
ss.