(dp1
I27
(dp2
S'becameSuitTime'
p3
F1430776240.112
sS'savedBy'
p4
NsS'track'
p5
S's'
sS'numFloors'
p6
I2
sS'difficulty'
p7
I3
sS'state'
p8
S'suit'
p9
sS'block'
p10
I27
ssI17
(dp11
g3
F1439782792.276
sg4
Nsg5
S's'
sg6
I3
sg7
I3
sg8
g9
sg10
I17
ssI26
(dp12
g3
F1450939953.2709999
sg4
Nsg5
S's'
sg6
I4
sg7
I5
sg8
g9
sg10
I26
ssI11
(dp13
g3
F1430858689.427
sg4
Nsg5
S's'
sg6
I4
sg7
I5
sg8
g9
sg10
I11
ssI21
(dp14
g3
F1463255723.8740001
sg4
Nsg5
S's'
sg6
I3
sg7
I4
sg8
g9
sg10
I21
ss.