(dp1
I32
(dp2
S'becameSuitTime'
p3
F1403464160.441
sS'savedBy'
p4
NsS'track'
p5
S'l'
sS'numFloors'
p6
I1
sS'difficulty'
p7
I1
sS'state'
p8
S'suit'
p9
sS'block'
p10
I32
ssI40
(dp11
g3
F1403463999.8540001
sg4
Nsg5
S'l'
sg6
I2
sg7
I2
sg8
g9
sg10
I40
ssI14
(dp12
g3
F1403462337.5
sg4
Nsg5
S'l'
sg6
I1
sg7
I1
sg8
g9
sg10
I14
ss.