(dp1
I16
(dp2
S'becameSuitTime'
p3
F1403461019.9059999
sS'savedBy'
p4
NsS'track'
p5
S'l'
sS'numFloors'
p6
I3
sS'difficulty'
p7
I2
sS'state'
p8
S'suit'
p9
sS'block'
p10
I16
ssI20
(dp11
g3
F1403461023.806
sg4
Nsg5
S'c'
sg6
I1
sg7
I1
sg8
g9
sg10
I20
ssI13
(dp12
g3
F1403463424.7750001
sg4
Nsg5
S'c'
sg6
I2
sg7
I1
sg8
g9
sg10
I13
ssI22
(dp13
g3
F1403459832.9619999
sg4
Nsg5
S'c'
sg6
I2
sg7
I2
sg8
g9
sg10
I22
ssI21
(dp14
g3
F1403462231.8099999
sg4
Nsg5
S'l'
sg6
I2
sg7
I2
sg8
g9
sg10
I21
ss.