(dp1
I17
(dp2
S'becameSuitTime'
p3
F1463255592.822
sS'savedBy'
p4
NsS'track'
p5
S's'
sS'numFloors'
p6
I4
sS'difficulty'
p7
I5
sS'state'
p8
S'suit'
p9
sS'block'
p10
I17
ssI10
(dp11
g3
F1463255595.358
sg4
Nsg5
S's'
sg6
I3
sg7
I5
sg8
g9
sg10
I10
ssI27
(dp12
g3
F1463254376.9000001
sg4
Nsg5
S'l'
sg6
I4
sg7
I5
sg8
g9
sg10
I27
ssI30
(dp13
g3
F1463254405.6010001
sg4
Nsg5
S'l'
sg6
I4
sg7
I7
sg8
g9
sg10
I30
ssI25
(dp14
g3
F1463254381.4189999
sg4
Nsg5
S'l'
sg6
I5
sg7
I8
sg8
g9
sg10
I25
ss.