(dp1
I17
(dp2
S'becameSuitTime'
p3
F1463255609.312
sS'savedBy'
p4
NsS'track'
p5
S's'
sS'numFloors'
p6
I4
sS'difficulty'
p7
I5
sS'state'
p8
S'suit'
p9
sS'block'
p10
I17
ssI10
(dp11
g3
F1463255606.1760001
sg4
Nsg5
S's'
sg6
I4
sg7
I5
sg8
g9
sg10
I10
ssI34
(dp12
g3
F1463255606.9849999
sg4
Nsg5
S's'
sg6
I4
sg7
I4
sg8
g9
sg10
I34
ssI22
(dp13
g3
F1463255578.6359999
sg4
Nsg5
S's'
sg6
I3
sg7
I4
sg8
g9
sg10
I22
ssI25
(dp14
g3
F1463254396.556
sg4
Nsg5
S'm'
sg6
I4
sg7
I4
sg8
g9
sg10
I25
ss.