(dp1
I24
(dp2
S'becameSuitTime'
p3
F1409707587.411
sS'savedBy'
p4
NsS'track'
p5
S's'
sS'numFloors'
p6
I5
sS'difficulty'
p7
I8
sS'state'
p8
S'suit'
p9
sS'block'
p10
I24
ssI33
(dp11
g3
F1409707505.2290001
sg4
Nsg5
S's'
sg6
I4
sg7
I7
sg8
g9
sg10
I33
ssI18
(dp12
g3
F1409707532.0339999
sg4
Nsg5
S'c'
sg6
I5
sg7
I8
sg8
g9
sg10
I18
ssI30
(dp13
g3
F1409707646.608
sg4
Nsg5
S's'
sg6
I2
sg7
I1
sg8
g9
sg10
I30
ssI22
(dp14
g3
F1409707610.9200001
sg4
Nsg5
S'l'
sg6
I5
sg7
I8
sg8
g9
sg10
I22
ss.