(dp1
I18
(dp2
S'becameSuitTime'
p3
F1463255618.0450001
sS'savedBy'
p4
NsS'track'
p5
S's'
sS'numFloors'
p6
I3
sS'difficulty'
p7
I5
sS'state'
p8
S'suit'
p9
sS'block'
p10
I18
ssI51
(dp11
g3
F1463255638.5669999
sg4
Nsg5
S's'
sg6
I3
sg7
I4
sg8
g9
sg10
I51
ssI13
(dp12
g3
F1463254414.7119999
sg4
Nsg5
S'c'
sg6
I4
sg7
I4
sg8
g9
sg10
I13
ssI14
(dp13
g3
F1463254425.1559999
sg4
Nsg5
S'c'
sg6
I3
sg7
I5
sg8
g9
sg10
I14
ssI53
(dp14
g3
F1463255631.549
sg4
Nsg5
S's'
sg6
I4
sg7
I5
sg8
g9
sg10
I53
ss.