(dp1
I32
(dp2
S'becameSuitTime'
p3
F1463255726.2969999
sS'savedBy'
p4
NsS'track'
p5
S's'
sS'numFloors'
p6
I4
sS'difficulty'
p7
I4
sS'state'
p8
S'suit'
p9
sS'block'
p10
I32
ssI28
(dp11
g3
F1450939946.8599999
sg4
Nsg5
S'm'
sg6
I2
sg7
I3
sg8
g9
sg10
I28
ssI20
(dp12
g3
F1439782805.214
sg4
Nsg5
S'm'
sg6
I3
sg7
I5
sg8
g9
sg10
I20
ssI13
(dp13
g3
F1450939945.293
sg4
Nsg5
S'm'
sg6
I3
sg7
I3
sg8
g9
sg10
I13
ssI29
(dp14
g3
F1463255721.5039999
sg4
Nsg5
S's'
sg6
I3
sg7
I2
sg8
g9
sg10
I29
ss.