(dp1
I16
(dp2
S'becameSuitTime'
p3
F1463808149.2060001
sS'savedBy'
p4
NsS'track'
p5
S'm'
sS'numFloors'
p6
I4
sS'difficulty'
p7
I5
sS'state'
p8
S'suit'
p9
sS'block'
p10
I16
ssI10
(dp11
g3
F1463808160.1199999
sg4
Nsg5
S'm'
sg6
I4
sg7
I7
sg8
g9
sg10
I10
ssI13
(dp12
g3
F1463808136.8929999
sg4
Nsg5
S'm'
sg6
I4
sg7
I7
sg8
g9
sg10
I13
ssI22
(dp13
g3
F1463808244.619
sg4
Nsg5
S'm'
sg6
I5
sg7
I8
sg8
g9
sg10
I22
ssI21
(dp14
g3
F1463808204.0309999
sg4
Nsg5
S'm'
sg6
I4
sg7
I7
sg8
g9
sg10
I21
ss.