(dp1
I16
(dp2
S'becameSuitTime'
p3
F1463255573.0009999
sS'savedBy'
p4
NsS'track'
p5
S's'
sS'numFloors'
p6
I2
sS'difficulty'
p7
I2
sS'state'
p8
S'suit'
p9
sS'block'
p10
I16
ssI25
(dp11
g3
F1450939786.9990001
sg4
Nsg5
S'l'
sg6
I2
sg7
I3
sg8
g9
sg10
I25
ssI26
(dp12
g3
F1445800663.2690001
sg4
Nsg5
S'l'
sg6
I4
sg7
I4
sg8
g9
sg10
I26
ssI11
(dp13
g3
F1463254434.039
sg4
Nsg5
S'l'
sg6
I2
sg7
I3
sg8
g9
sg10
I11
ssI15
(dp14
g3
F1463254354.9920001
sg4
Nsg5
S'l'
sg6
I1
sg7
I2
sg8
g9
sg10
I15
ss.