(dp1
I25
(dp2
S'becameSuitTime'
p3
F1403461761.3599999
sS'savedBy'
p4
NsS'track'
p5
S'c'
sS'numFloors'
p6
I1
sS'difficulty'
p7
I1
sS'state'
p8
S'suit'
p9
sS'block'
p10
I25
ssI66
(dp11
g3
F1403461133.256
sg4
Nsg5
S'm'
sg6
I3
sg7
I2
sg8
g9
sg10
I66
ssI33
(dp12
g3
F1403461159.355
sg4
Nsg5
S's'
sg6
I2
sg7
I1
sg8
g9
sg10
I33
ss.