(dp1
I25
(dp2
S'becameSuitTime'
p3
F1415543809.1240001
sS'savedBy'
p4
NsS'track'
p5
S'c'
sS'numFloors'
p6
I3
sS'difficulty'
p7
I6
sS'state'
p8
S'suit'
p9
sS'block'
p10
I25
ssI43
(dp11
g3
F1415544530.3399999
sg4
Nsg5
S's'
sg6
I5
sg7
I8
sg8
g9
sg10
I43
ssI61
(dp12
g3
F1415543826.8770001
sg4
Nsg5
S'c'
sg6
I5
sg7
I6
sg8
g9
sg10
I61
ssI62
(dp13
g3
F1415544260.5910001
sg4
Nsg5
S'c'
sg6
I2
sg7
I3
sg8
g9
sg10
I62
ssI57
(dp14
g3
F1415544468.6070001
sg4
Nsg5
S'l'
sg6
I2
sg7
I4
sg8
g9
sg10
I57
ss.