(dp1
I33
(dp2
S'becameSuitTime'
p3
F1403462766.0480001
sS'savedBy'
p4
NsS'track'
p5
S'c'
sS'numFloors'
p6
I1
sS'difficulty'
p7
I2
sS'state'
p8
S'suit'
p9
sS'block'
p10
I33
ssI26
(dp11
g3
F1403461291.612
sg4
Nsg5
S'm'
sg6
I3
sg7
I3
sg8
g9
sg10
I26
ssI19
(dp12
g3
F1403461251.582
sg4
Nsg5
S'c'
sg6
I2
sg7
I3
sg8
g9
sg10
I19
ssI28
(dp13
g3
F1403464225.1029999
sg4
Nsg5
S'c'
sg6
I2
sg7
I3
sg8
g9
sg10
I28
ssI31
(dp14
g3
F1406668345.1289999
sg4
Nsg5
S'c'
sg6
I2
sg7
I2
sg8
g9
sg10
I31
ss.