(dp1
I16
(dp2
S'becameSuitTime'
p3
F1463255628.033
sS'savedBy'
p4
NsS'track'
p5
S's'
sS'numFloors'
p6
I3
sS'difficulty'
p7
I5
sS'state'
p8
S'suit'
p9
sS'block'
p10
I16
ssI25
(dp11
g3
F1467933590.776
sg4
Nsg5
S's'
sg6
I5
sg7
I7
sg8
g9
sg10
I25
ssI19
(dp12
g3
F1463254444.6029999
sg4
Nsg5
S'l'
sg6
I5
sg7
I7
sg8
g9
sg10
I19
ssI33
(dp13
g3
F1463255602.6570001
sg4
Nsg5
S's'
sg6
I4
sg7
I5
sg8
g9
sg10
I33
ssI31
(dp14
g3
F1483942536.336
sg4
Nsg5
S'c'
sg6
I5
sg7
I6
sg8
g9
sg10
I31
ss.