(dp1
I33
(dp2
S'becameSuitTime'
p3
F1403461577.108
sS'savedBy'
p4
NsS'track'
p5
S's'
sS'numFloors'
p6
I3
sS'difficulty'
p7
I5
sS'state'
p8
S'suit'
p9
sS'block'
p10
I33
ssI11
(dp11
g3
F1403459820.5599999
sg4
Nsg5
S'c'
sg6
I3
sg7
I6
sg8
g9
sg10
I11
ssI20
(dp12
g3
F1403461293.4519999
sg4
Nsg5
S'c'
sg6
I3
sg7
I5
sg8
g9
sg10
I20
ssI13
(dp13
g3
F1403461326.244
sg4
Nsg5
S'c'
sg6
I3
sg7
I2
sg8
g9
sg10
I13
ssI21
(dp14
g3
F1403461296.3069999
sg4
Nsg5
S'l'
sg6
I1
sg7
I2
sg8
g9
sg10
I21
ss.