(dp1
I64
(dp2
S'becameSuitTime'
p3
F1403461104.349
sS'savedBy'
p4
NsS'track'
p5
S'c'
sS'numFloors'
p6
I3
sS'difficulty'
p7
I2
sS'state'
p8
S'suit'
p9
sS'block'
p10
I64
ssI66
(dp11
g3
F1403461132.398
sg4
Nsg5
S'l'
sg6
I1
sg7
I2
sg8
g9
sg10
I66
ssI59
(dp12
g3
F1403461634.4219999
sg4
Nsg5
S'c'
sg6
I1
sg7
I1
sg8
g9
sg10
I59
ss.