(dp1
I16
(dp2
S'becameSuitTime'
p3
F1430775126.2920001
sS'savedBy'
p4
NsS'track'
p5
S's'
sS'numFloors'
p6
I2
sS'difficulty'
p7
I1
sS'state'
p8
S'suit'
p9
sS'block'
p10
I16
ssI24
(dp11
g3
F1430776175.27
sg4
Nsg5
S's'
sg6
I1
sg7
I1
sg8
g9
sg10
I24
ssI23
(dp12
g3
F1463255732.9779999
sg4
Nsg5
S's'
sg6
I2
sg7
I1
sg8
g9
sg10
I23
ssI22
(dp13
g3
F1439782783.059
sg4
Nsg5
S's'
sg6
I1
sg7
I1
sg8
g9
sg10
I22
ssI15
(dp14
g3
F1450939948.3329999
sg4
Nsg5
S's'
sg6
I2
sg7
I1
sg8
g9
sg10
I15
ss.